target datalayout = "e-m:e-p270:32:32-p271:32:32-p272:64:64-i64:64-i128:128-f80:128-n8:16:32:64-S128"
target triple = "x86_64-pc-linux-gnu"

%struct.darktable_t = type { %struct.dt_codepath_t, i32, i32, ptr, ptr, ptr, ptr, ptr, ptr, ptr, ptr, ptr, ptr, ptr, ptr, ptr, ptr, ptr, ptr, ptr, ptr, ptr, ptr, ptr, ptr, ptr, ptr, ptr, ptr, ptr, [64 x %struct.dt_pthread_mutex_t], %struct.dt_pthread_mutex_t, %struct.dt_pthread_mutex_t, %struct.dt_pthread_mutex_t, %struct.dt_pthread_mutex_t, %struct.dt_pthread_mutex_t, ptr, ptr, ptr, ptr, ptr, ptr, ptr, ptr, ptr, ptr, ptr, ptr, ptr, %struct.dt_lua_state_t, ptr, double, ptr, i32, [47 x i32], i32, i32, ptr, ptr, %struct.dt_sys_resources_t, %struct.dt_backthumb_t, %struct.dt_gimp_t }
%struct.dt_codepath_t = type { i8, [3 x i8] }
%struct.dt_pthread_mutex_t = type { %union.pthread_mutex_t }
%union.pthread_mutex_t = type { %struct.__pthread_mutex_s }
%struct.__pthread_mutex_s = type { i32, i32, i32, i32, i32, i16, i16, %struct.__pthread_internal_list }
%struct.__pthread_internal_list = type { ptr, ptr }
%struct.dt_lua_state_t = type { i32 }
%struct.dt_sys_resources_t = type { i64, i64, ptr, ptr, i32 }
%struct.dt_backthumb_t = type { double, double, i32, i32, i32, i32 }
%struct.dt_gimp_t = type { i32, ptr, ptr, i32, i32 }

@darktable = external global %struct.darktable_t, align 8
@.str.19 = private unnamed_addr constant [2 x i8] c",\00", align 1

; Function Attrs: nounwind uwtable
define i32 @dt_tag_attach_string_list(ptr noundef %0, ptr noundef %1, i32 noundef %2) #0 {
  %4 = alloca ptr, align 8
  %5 = alloca ptr, align 8
  %6 = alloca i32, align 4
  %7 = alloca ptr, align 8
  %8 = alloca i32, align 4
  %9 = alloca ptr, align 8
  %10 = alloca ptr, align 8
  %11 = alloca ptr, align 8
  %12 = alloca i32, align 4
  %13 = alloca ptr, align 8
  store ptr %0, ptr %4, align 8, !tbaa !6
  store ptr %1, ptr %5, align 8, !tbaa !59
  store i32 %2, ptr %6, align 4, !tbaa !52
  call void @llvm.lifetime.start.p0(i64 8, ptr %7) #8
  %14 = load ptr, ptr %4, align 8, !tbaa !6
  %15 = call ptr @g_strsplit(ptr noundef %14, ptr noundef @.str.19, i32 noundef 0)
  store ptr %15, ptr %7, align 8, !tbaa !75
  call void @llvm.lifetime.start.p0(i64 4, ptr %8) #8
  store i32 0, ptr %8, align 4, !tbaa !52
  %16 = load ptr, ptr %7, align 8, !tbaa !75
  %17 = icmp ne ptr %16, null
  br i1 %17, label %18, label %65

18:                                               ; preds = %3
  call void @llvm.lifetime.start.p0(i64 8, ptr %9) #8
  store ptr null, ptr %9, align 8, !tbaa !59
  call void @llvm.lifetime.start.p0(i64 8, ptr %10) #8
  %19 = load ptr, ptr %7, align 8, !tbaa !75
  store ptr %19, ptr %10, align 8, !tbaa !75
  br label %20

20:                                               ; preds = %40, %18
  %21 = load ptr, ptr %10, align 8, !tbaa !75
  %22 = load ptr, ptr %21, align 8, !tbaa !6
  %23 = icmp ne ptr %22, null
  br i1 %23, label %24, label %43

24:                                               ; preds = %20
  call void @llvm.lifetime.start.p0(i64 8, ptr %11) #8
  %25 = load ptr, ptr %10, align 8, !tbaa !75
  %26 = load ptr, ptr %25, align 8, !tbaa !6
  %27 = call ptr @g_strchug(ptr noundef %26)
  %28 = call ptr @g_strchomp(ptr noundef %27)
  store ptr %28, ptr %11, align 8, !tbaa !6
  %29 = load ptr, ptr %11, align 8, !tbaa !6
  %30 = load i8, ptr %29, align 1, !tbaa !13
  %31 = icmp ne i8 %30, 0
  br i1 %31, label %32, label %40

32:                                               ; preds = %24
  call void @llvm.lifetime.start.p0(i64 4, ptr %12) #8
  store i32 0, ptr %12, align 4, !tbaa !52
  %33 = load ptr, ptr %11, align 8, !tbaa !6
  %34 = call i32 @dt_tag_new(ptr noundef %33, ptr noundef %12)
  %35 = load ptr, ptr %9, align 8, !tbaa !59
  %36 = load i32, ptr %12, align 4, !tbaa !52
  %37 = zext i32 %36 to i64
  %38 = inttoptr i64 %37 to ptr
  %39 = call ptr @g_list_prepend(ptr noundef %35, ptr noundef %38)
  store ptr %39, ptr %9, align 8, !tbaa !59
  call void @llvm.lifetime.end.p0(i64 4, ptr %12) #8
  br label %40

40:                                               ; preds = %32, %24
  %41 = load ptr, ptr %10, align 8, !tbaa !75
  %42 = getelementptr inbounds nuw ptr, ptr %41, i32 1
  store ptr %42, ptr %10, align 8, !tbaa !75
  call void @llvm.lifetime.end.p0(i64 8, ptr %11) #8
  br label %20

43:                                               ; preds = %20
  %44 = load ptr, ptr %5, align 8, !tbaa !59
  %45 = icmp ne ptr %44, null
  br i1 %45, label %46, label %63

46:                                               ; preds = %43
  call void @llvm.lifetime.start.p0(i64 8, ptr %13) #8
  store ptr null, ptr %13, align 8, !tbaa !59
  %47 = load i32, ptr %6, align 4, !tbaa !52
  %48 = icmp ne i32 %47, 0
  br i1 %48, label %49, label %51

49:                                               ; preds = %46
  %50 = load ptr, ptr getelementptr inbounds nuw (%struct.darktable_t, ptr @darktable, i32 0, i32 27), align 8, !tbaa !65
  call void @dt_undo_start_group(ptr noundef %50, i32 noundef 32)
  br label %51

51:                                               ; preds = %49, %46
  %52 = load ptr, ptr %9, align 8, !tbaa !59
  %53 = load ptr, ptr %5, align 8, !tbaa !59
  %54 = load i32, ptr %6, align 4, !tbaa !52
  %55 = call i32 @_tag_execute(ptr noundef %52, ptr noundef %53, ptr noundef %13, i32 noundef %54, i32 noundef 0)
  store i32 %55, ptr %8, align 4, !tbaa !52
  %56 = load i32, ptr %6, align 4, !tbaa !52
  %57 = icmp ne i32 %56, 0
  br i1 %57, label %58, label %62

58:                                               ; preds = %51
  %59 = load ptr, ptr getelementptr inbounds nuw (%struct.darktable_t, ptr @darktable, i32 0, i32 27), align 8, !tbaa !65
  %60 = load ptr, ptr %13, align 8, !tbaa !59
  call void @dt_undo_record(ptr noundef %59, ptr noundef null, i32 noundef 32, ptr noundef %60, ptr noundef @_pop_undo, ptr noundef @_tags_undo_data_free)
  %61 = load ptr, ptr getelementptr inbounds nuw (%struct.darktable_t, ptr @darktable, i32 0, i32 27), align 8, !tbaa !65
  call void @dt_undo_end_group(ptr noundef %61)
  br label %62

62:                                               ; preds = %58, %51
  call void @llvm.lifetime.end.p0(i64 8, ptr %13) #8
  br label %63

63:                                               ; preds = %62, %43
  %64 = load ptr, ptr %9, align 8, !tbaa !59
  call void @g_list_free(ptr noundef %64)
  call void @llvm.lifetime.end.p0(i64 8, ptr %10) #8
  call void @llvm.lifetime.end.p0(i64 8, ptr %9) #8
  br label %65

65:                                               ; preds = %63, %3
  %66 = load ptr, ptr %7, align 8, !tbaa !75
  call void @g_strfreev(ptr noundef %66)
  %67 = load i32, ptr %8, align 4, !tbaa !52
  call void @llvm.lifetime.end.p0(i64 4, ptr %8) #8
  call void @llvm.lifetime.end.p0(i64 8, ptr %7) #8
  ret i32 %67
}