; Function Attrs: nounwind uwtable
define range(i32 0, 2) i32 @dt_tag_attach_string_list(ptr noundef %0, ptr noundef readonly %1, i32 noundef %2) local_unnamed_addr #0 {
  %4 = alloca i32, align 4
  %5 = alloca ptr, align 8
  %6 = tail call ptr @g_strsplit(ptr noundef %0, ptr noundef nonnull @.str.19, i32 noundef 0) #11
  %.not = icmp eq ptr %6, null
  br i1 %.not, label %31, label %.preheader

.preheader:                                       ; preds = %3
  %7 = load ptr, ptr %6, align 8, !tbaa !57
  %.not2632 = icmp eq ptr %7, null
  br i1 %.not2632, label %._crit_edge, label %.lr.ph

.lr.ph:                                           ; preds = %.preheader, %18
  %8 = phi ptr [ %20, %18 ], [ %7, %.preheader ]
  %.01734 = phi ptr [ %19, %18 ], [ %6, %.preheader ]
  %.01833 = phi ptr [ %.119, %18 ], [ null, %.preheader ]
  %9 = call ptr @g_strchug(ptr noundef nonnull %8) #11
  %10 = call ptr @g_strchomp(ptr noundef %9) #11
  %11 = load i8, ptr %10, align 1, !tbaa !6
  %.not29 = icmp eq i8 %11, 0
  br i1 %.not29, label %18, label %12

12:                                               ; preds = %.lr.ph
  call void @llvm.lifetime.start.p0(i64 4, ptr nonnull %4) #11
  store i32 0, ptr %4, align 4, !tbaa !54
  %13 = call i32 @dt_tag_new(ptr noundef nonnull %10, ptr noundef nonnull %4)
  %14 = load i32, ptr %4, align 4, !tbaa !54
  %15 = zext i32 %14 to i64
  %16 = inttoptr i64 %15 to ptr
  %17 = call ptr @g_list_prepend(ptr noundef %.01833, ptr noundef %16) #11
  call void @llvm.lifetime.end.p0(i64 4, ptr nonnull %4) #11
  br label %18

18:                                               ; preds = %12, %.lr.ph
  %.119 = phi ptr [ %17, %12 ], [ %.01833, %.lr.ph ]
  %19 = getelementptr inbounds nuw i8, ptr %.01734, i64 8
  %20 = load ptr, ptr %19, align 8, !tbaa !57
  %.not26 = icmp eq ptr %20, null
  br i1 %.not26, label %._crit_edge, label %.lr.ph

._crit_edge:                                      ; preds = %18, %.preheader
  %.018.lcssa = phi ptr [ null, %.preheader ], [ %.119, %18 ]
  %.not27 = icmp eq ptr %1, null
  br i1 %.not27, label %30, label %21

21:                                               ; preds = %._crit_edge
  call void @llvm.lifetime.start.p0(i64 8, ptr nonnull %5) #11
  store ptr null, ptr %5, align 8, !tbaa !63
  %.not28 = icmp eq i32 %2, 0
  br i1 %.not28, label %.thread, label %23

.thread:                                          ; preds = %21
  %22 = call fastcc i32 @_tag_execute(ptr noundef %.018.lcssa, ptr noundef %1, ptr noundef %5, i32 noundef 0, i32 noundef 0)
  br label %29

23:                                               ; preds = %21
  %24 = load ptr, ptr getelementptr inbounds nuw (i8, ptr @darktable, i64 208), align 8, !tbaa !64
  call void @dt_undo_start_group(ptr noundef %24, i32 noundef 32) #11
  %25 = call fastcc i32 @_tag_execute(ptr noundef %.018.lcssa, ptr noundef %1, ptr noundef %5, i32 noundef %2, i32 noundef 0)
  %26 = load ptr, ptr getelementptr inbounds nuw (i8, ptr @darktable, i64 208), align 8, !tbaa !64
  %27 = load ptr, ptr %5, align 8, !tbaa !63
  call void @dt_undo_record(ptr noundef %26, ptr noundef null, i32 noundef 32, ptr noundef %27, ptr noundef nonnull @_pop_undo, ptr noundef nonnull @_tags_undo_data_free) #11
  %28 = load ptr, ptr getelementptr inbounds nuw (i8, ptr @darktable, i64 208), align 8, !tbaa !64
  call void @dt_undo_end_group(ptr noundef %28) #11
  br label %29

29:                                               ; preds = %.thread, %23
  %phi.call31 = phi i32 [ %22, %.thread ], [ %25, %23 ]
  call void @llvm.lifetime.end.p0(i64 8, ptr nonnull %5) #11
  br label %30

30:                                               ; preds = %29, %._crit_edge
  %.1 = phi i32 [ %phi.call31, %29 ], [ 0, %._crit_edge ]
  call void @g_list_free(ptr noundef %.018.lcssa) #11
  br label %31

31:                                               ; preds = %30, %3
  %.0 = phi i32 [ %.1, %30 ], [ 0, %3 ]
  call void @g_strfreev(ptr noundef %6) #11
  ret i32 %.0
}